(lp0
S'poi'
p1
aS'salary'
p2
aS'bonus_salary_ratio'
p3
aS'fraction_from_poi'
p4
aS'fraction_to_poi'
p5
aS'deferral_payments'
p6
aS'total_payments'
p7
aS'loan_advances'
p8
aS'bonus'
p9
aS'restricted_stock_deferred'
p10
aS'deferred_income'
p11
aS'total_stock_value'
p12
aS'expenses'
p13
aS'exercised_stock_options'
p14
aS'other'
p15
aS'long_term_incentive'
p16
aS'restricted_stock'
p17
aS'director_fees'
p18
aS'to_messages'
p19
aS'from_poi_to_this_person'
p20
aS'from_messages'
p21
aS'from_this_person_to_poi'
p22
aS'shared_receipt_with_poi'
p23
a.